target datalayout = "e-m:e-p270:32:32-p271:32:32-p272:64:64-i64:64-i128:128-f80:128-n8:16:32:64-S128"
target triple = "x86_64-pc-linux-gnu"

%struct.vfd = type { i32, i16, ptr, i32, i32, i32, i64, ptr, i32, i32 }
%struct.iovec = type { ptr, i64 }

@.str.1 = private unnamed_addr constant [5 x i8] c"fd.c\00", align 1
@VfdCache = internal global ptr null, align 8
@temporary_files_size = internal global i64 0, align 8
@temp_file_limit = external global i32, align 4
@.str.25 = private unnamed_addr constant [53 x i8] c"temporary file size exceeds \22temp_file_limit\22 (%dkB)\00", align 1
@__func__.FileWriteV = private unnamed_addr constant [11 x i8] c"FileWriteV\00", align 1
@my_wait_event_info = external global ptr, align 8

; Function Attrs: inlinehint nounwind uwtable
define internal void @pgstat_report_wait_end() #9 {
  %1 = load ptr, ptr @my_wait_event_info, align 8
  store volatile i32 0, ptr %1, align 4
  ret void
}

; Function Attrs: inlinehint nounwind uwtable
define internal i64 @pg_pwritev(i32 noundef %0, ptr noundef %1, i32 noundef %2, i64 noundef %3) #9 {
  %5 = alloca i64, align 8
  %6 = alloca i32, align 4
  %7 = alloca ptr, align 8
  %8 = alloca i32, align 4
  %9 = alloca i64, align 8
  store i32 %0, ptr %6, align 4
  store ptr %1, ptr %7, align 8
  store i32 %2, ptr %8, align 4
  store i64 %3, ptr %9, align 8
  %10 = load i32, ptr %8, align 4
  %11 = icmp eq i32 %10, 1
  br i1 %11, label %12, label %24

12:                                               ; preds = %4
  %13 = load i32, ptr %6, align 4
  %14 = load ptr, ptr %7, align 8
  %15 = getelementptr inbounds %struct.iovec, ptr %14, i64 0
  %16 = getelementptr inbounds nuw %struct.iovec, ptr %15, i32 0, i32 0
  %17 = load ptr, ptr %16, align 8
  %18 = load ptr, ptr %7, align 8
  %19 = getelementptr inbounds %struct.iovec, ptr %18, i64 0
  %20 = getelementptr inbounds nuw %struct.iovec, ptr %19, i32 0, i32 1
  %21 = load i64, ptr %20, align 8
  %22 = load i64, ptr %9, align 8
  %23 = call i64 @pwrite(i32 noundef %13, ptr noundef %17, i64 noundef %21, i64 noundef %22)
  store i64 %23, ptr %5, align 8
  br label %30

24:                                               ; preds = %4
  %25 = load i32, ptr %6, align 4
  %26 = load ptr, ptr %7, align 8
  %27 = load i32, ptr %8, align 4
  %28 = load i64, ptr %9, align 8
  %29 = call i64 @pwritev(i32 noundef %25, ptr noundef %26, i32 noundef %27, i64 noundef %28)
  store i64 %29, ptr %5, align 8
  br label %30

30:                                               ; preds = %24, %12
  %31 = load i64, ptr %5, align 8
  ret i64 %31
}

; Function Attrs: inlinehint nounwind uwtable
define internal void @pgstat_report_wait_start(i32 noundef %0) #9 {
  %2 = alloca i32, align 4
  store i32 %0, ptr %2, align 4
  %3 = load i32, ptr %2, align 4
  %4 = load ptr, ptr @my_wait_event_info, align 8
  store volatile i32 %3, ptr %4, align 4
  ret void
}

; Function Attrs: nounwind uwtable
define dso_local i64 @FileWriteV(i32 noundef %0, ptr noundef %1, i32 noundef %2, i64 noundef %3, i32 noundef %4) #0 {
  %6 = alloca i64, align 8
  %7 = alloca i32, align 4
  %8 = alloca ptr, align 8
  %9 = alloca i32, align 4
  %10 = alloca i64, align 8
  %11 = alloca i32, align 4
  %12 = alloca i64, align 8
  %13 = alloca ptr, align 8
  %14 = alloca i32, align 4
  %15 = alloca i64, align 8
  %16 = alloca i32, align 4
  %17 = alloca i64, align 8
  %18 = alloca i64, align 8
  store i32 %0, ptr %7, align 4
  store ptr %1, ptr %8, align 8
  store i32 %2, ptr %9, align 4
  store i64 %3, ptr %10, align 8
  store i32 %4, ptr %11, align 4
  call void @llvm.lifetime.start.p0(i64 8, ptr %12) #14
  call void @llvm.lifetime.start.p0(i64 8, ptr %13) #14
  %19 = load i32, ptr %7, align 4
  %20 = call i32 @FileAccess(i32 noundef %19)
  %21 = sext i32 %20 to i64
  store i64 %21, ptr %12, align 8
  %22 = load i64, ptr %12, align 8
  %23 = icmp slt i64 %22, 0
  br i1 %23, label %24, label %26

24:                                               ; preds = %5
  %25 = load i64, ptr %12, align 8
  store i64 %25, ptr %6, align 8
  store i32 1, ptr %14, align 4
  br label %144

26:                                               ; preds = %5
  %27 = load ptr, ptr @VfdCache, align 8
  %28 = load i32, ptr %7, align 4
  %29 = sext i32 %28 to i64
  %30 = getelementptr inbounds %struct.vfd, ptr %27, i64 %29
  store ptr %30, ptr %13, align 8
  %31 = load i32, ptr @temp_file_limit, align 4
  %32 = icmp sge i32 %31, 0
  br i1 %32, label %33, label %94

33:                                               ; preds = %26
  %34 = load ptr, ptr %13, align 8
  %35 = getelementptr inbounds nuw %struct.vfd, ptr %34, i32 0, i32 1
  %36 = load i16, ptr %35, align 4
  %37 = zext i16 %36 to i32
  %38 = and i32 %37, 4
  %39 = icmp ne i32 %38, 0
  br i1 %39, label %40, label %94

40:                                               ; preds = %33
  call void @llvm.lifetime.start.p0(i64 8, ptr %15) #14
  %41 = load i64, ptr %10, align 8
  store i64 %41, ptr %15, align 8
  call void @llvm.lifetime.start.p0(i64 4, ptr %16) #14
  store i32 0, ptr %16, align 4
  br label %42

42:                                               ; preds = %56, %40
  %43 = load i32, ptr %16, align 4
  %44 = load i32, ptr %9, align 4
  %45 = icmp slt i32 %43, %44
  br i1 %45, label %47, label %46

46:                                               ; preds = %42
  store i32 2, ptr %14, align 4
  call void @llvm.lifetime.end.p0(i64 4, ptr %16) #14
  br label %59

47:                                               ; preds = %42
  %48 = load ptr, ptr %8, align 8
  %49 = load i32, ptr %16, align 4
  %50 = sext i32 %49 to i64
  %51 = getelementptr inbounds %struct.iovec, ptr %48, i64 %50
  %52 = getelementptr inbounds nuw %struct.iovec, ptr %51, i32 0, i32 1
  %53 = load i64, ptr %52, align 8
  %54 = load i64, ptr %15, align 8
  %55 = add i64 %54, %53
  store i64 %55, ptr %15, align 8
  br label %56

56:                                               ; preds = %47
  %57 = load i32, ptr %16, align 4
  %58 = add i32 %57, 1
  store i32 %58, ptr %16, align 4
  br label %42, !llvm.loop !14

59:                                               ; preds = %46
  %60 = load i64, ptr %15, align 8
  %61 = load ptr, ptr %13, align 8
  %62 = getelementptr inbounds nuw %struct.vfd, ptr %61, i32 0, i32 6
  %63 = load i64, ptr %62, align 8
  %64 = icmp sgt i64 %60, %63
  br i1 %64, label %65, label %93

65:                                               ; preds = %59
  call void @llvm.lifetime.start.p0(i64 8, ptr %17) #14
  %66 = load i64, ptr @temporary_files_size, align 8
  store i64 %66, ptr %17, align 8
  %67 = load i64, ptr %15, align 8
  %68 = load ptr, ptr %13, align 8
  %69 = getelementptr inbounds nuw %struct.vfd, ptr %68, i32 0, i32 6
  %70 = load i64, ptr %69, align 8
  %71 = sub i64 %67, %70
  %72 = load i64, ptr %17, align 8
  %73 = add i64 %72, %71
  store i64 %73, ptr %17, align 8
  %74 = load i64, ptr %17, align 8
  %75 = load i32, ptr @temp_file_limit, align 4
  %76 = sext i32 %75 to i64
  %77 = mul i64 %76, 1024
  %78 = icmp ugt i64 %74, %77
  br i1 %78, label %79, label %92

79:                                               ; preds = %65
  br label %80

80:                                               ; preds = %79
  br i1 true, label %81, label %83

81:                                               ; preds = %80
  %82 = call zeroext i1 @errstart_cold(i32 noundef 21, ptr noundef null) #16
  br i1 %82, label %85, label %89

83:                                               ; preds = %80
  %84 = call zeroext i1 @errstart(i32 noundef 21, ptr noundef null)
  br i1 %84, label %85, label %89

85:                                               ; preds = %83, %81
  %86 = call i32 @errcode(i32 noundef 16581)
  %87 = load i32, ptr @temp_file_limit, align 4
  %88 = call i32 (ptr, ...) @errmsg(ptr noundef @.str.25, i32 noundef %87)
  call void @errfinish(ptr noundef @.str.1, i32 noundef 2257, ptr noundef @__func__.FileWriteV)
  br label %89

89:                                               ; preds = %85, %83, %81
  unreachable

90:                                               ; No predecessors!
  br label %91

91:                                               ; preds = %90
  br label %92

92:                                               ; preds = %91, %65
  call void @llvm.lifetime.end.p0(i64 8, ptr %17) #14
  br label %93

93:                                               ; preds = %92, %59
  call void @llvm.lifetime.end.p0(i64 8, ptr %15) #14
  br label %94

94:                                               ; preds = %93, %33, %26
  br label %95

95:                                               ; preds = %140, %94
  %96 = load i32, ptr %11, align 4
  call void @pgstat_report_wait_start(i32 noundef %96)
  %97 = load ptr, ptr %13, align 8
  %98 = getelementptr inbounds nuw %struct.vfd, ptr %97, i32 0, i32 0
  %99 = load i32, ptr %98, align 8
  %100 = load ptr, ptr %8, align 8
  %101 = load i32, ptr %9, align 4
  %102 = load i64, ptr %10, align 8
  %103 = call i64 @pg_pwritev(i32 noundef %99, ptr noundef %100, i32 noundef %101, i64 noundef %102)
  store i64 %103, ptr %12, align 8
  call void @pgstat_report_wait_end()
  %104 = load i64, ptr %12, align 8
  %105 = icmp sge i64 %104, 0
  br i1 %105, label %106, label %136

106:                                              ; preds = %95
  %107 = call ptr @__errno_location() #15
  store i32 28, ptr %107, align 4
  %108 = load ptr, ptr %13, align 8
  %109 = getelementptr inbounds nuw %struct.vfd, ptr %108, i32 0, i32 1
  %110 = load i16, ptr %109, align 4
  %111 = zext i16 %110 to i32
  %112 = and i32 %111, 4
  %113 = icmp ne i32 %112, 0
  br i1 %113, label %114, label %135

114:                                              ; preds = %106
  call void @llvm.lifetime.start.p0(i64 8, ptr %18) #14
  %115 = load i64, ptr %10, align 8
  %116 = load i64, ptr %12, align 8
  %117 = add i64 %115, %116
  store i64 %117, ptr %18, align 8
  %118 = load i64, ptr %18, align 8
  %119 = load ptr, ptr %13, align 8
  %120 = getelementptr inbounds nuw %struct.vfd, ptr %119, i32 0, i32 6
  %121 = load i64, ptr %120, align 8
  %122 = icmp sgt i64 %118, %121
  br i1 %122, label %123, label %134

123:                                              ; preds = %114
  %124 = load i64, ptr %18, align 8
  %125 = load ptr, ptr %13, align 8
  %126 = getelementptr inbounds nuw %struct.vfd, ptr %125, i32 0, i32 6
  %127 = load i64, ptr %126, align 8
  %128 = sub i64 %124, %127
  %129 = load i64, ptr @temporary_files_size, align 8
  %130 = add i64 %129, %128
  store i64 %130, ptr @temporary_files_size, align 8
  %131 = load i64, ptr %18, align 8
  %132 = load ptr, ptr %13, align 8
  %133 = getelementptr inbounds nuw %struct.vfd, ptr %132, i32 0, i32 6
  store i64 %131, ptr %133, align 8
  br label %134

134:                                              ; preds = %123, %114
  call void @llvm.lifetime.end.p0(i64 8, ptr %18) #14
  br label %135

135:                                              ; preds = %134, %106
  br label %142

136:                                              ; preds = %95
  %137 = call ptr @__errno_location() #15
  %138 = load i32, ptr %137, align 4
  %139 = icmp eq i32 %138, 4
  br i1 %139, label %140, label %141

140:                                              ; preds = %136
  br label %95

141:                                              ; preds = %136
  br label %142

142:                                              ; preds = %141, %135
  %143 = load i64, ptr %12, align 8
  store i64 %143, ptr %6, align 8
  store i32 1, ptr %14, align 4
  br label %144

144:                                              ; preds = %142, %24
  call void @llvm.lifetime.end.p0(i64 8, ptr %13) #14
  call void @llvm.lifetime.end.p0(i64 8, ptr %12) #14
  %145 = load i64, ptr %6, align 8
  ret i64 %145
}