; Function Attrs: nounwind uwtable
define dso_local i64 @FileWriteV(i32 noundef %0, ptr noundef %1, i32 noundef %2, i64 noundef %3, i32 noundef %4) local_unnamed_addr #0 {
  %6 = tail call fastcc i32 @FileAccess(i32 noundef %0)
  %7 = icmp slt i32 %6, 0
  br i1 %7, label %.loopexit, label %8

8:                                                ; preds = %5
  %9 = load ptr, ptr @VfdCache, align 8
  %10 = sext i32 %0 to i64
  %11 = getelementptr inbounds %struct.vfd, ptr %9, i64 %10
  %12 = load i32, ptr @temp_file_limit, align 4
  %13 = icmp sgt i32 %12, -1
  br i1 %13, label %14, label %37

14:                                               ; preds = %8
  %15 = getelementptr inbounds nuw i8, ptr %11, i64 4
  %16 = load i16, ptr %15, align 4
  %17 = and i16 %16, 4
  %.not = icmp eq i16 %17, 0
  br i1 %.not, label %37, label %.preheader

.preheader:                                       ; preds = %14
  %18 = icmp sgt i32 %2, 0
  br i1 %18, label %.lr.ph.preheader, label %._crit_edge

.lr.ph.preheader:                                 ; preds = %.preheader
  %wide.trip.count = zext nneg i32 %2 to i64
  br label %.lr.ph

._crit_edge:                                      ; preds = %.lr.ph, %.preheader
  %.035.lcssa = phi i64 [ %3, %.preheader ], [ %24, %.lr.ph ]
  %19 = getelementptr inbounds nuw i8, ptr %11, i64 32
  %20 = load i64, ptr %19, align 8
  %21 = icmp sgt i64 %.035.lcssa, %20
  br i1 %21, label %25, label %37

.lr.ph:                                           ; preds = %.lr.ph.preheader, %.lr.ph
  %indvars.iv = phi i64 [ 0, %.lr.ph.preheader ], [ %indvars.iv.next, %.lr.ph ]
  %.03544 = phi i64 [ %3, %.lr.ph.preheader ], [ %24, %.lr.ph ]
  %22 = getelementptr inbounds nuw %struct.iovec, ptr %1, i64 %indvars.iv, i32 1
  %23 = load i64, ptr %22, align 8
  %24 = add i64 %23, %.03544
  %indvars.iv.next = add nuw nsw i64 %indvars.iv, 1
  %exitcond.not = icmp eq i64 %indvars.iv.next, %wide.trip.count
  br i1 %exitcond.not, label %._crit_edge, label %.lr.ph, !llvm.loop !15

25:                                               ; preds = %._crit_edge
  %26 = load i64, ptr @temporary_files_size, align 8
  %27 = sub i64 %.035.lcssa, %20
  %28 = add i64 %27, %26
  %29 = zext nneg i32 %12 to i64
  %30 = shl nuw nsw i64 %29, 10
  %31 = icmp ugt i64 %28, %30
  br i1 %31, label %32, label %37

32:                                               ; preds = %25
  %33 = tail call zeroext i1 @errstart_cold(i32 noundef 21, ptr noundef null) #27
  tail call void @llvm.assume(i1 %33)
  %34 = tail call i32 @errcode(i32 noundef 16581) #25
  %35 = load i32, ptr @temp_file_limit, align 4
  %36 = tail call i32 (ptr, ...) @errmsg(ptr noundef nonnull @.str.25, i32 noundef %35) #25
  tail call void @errfinish(ptr noundef nonnull @.str.1, i32 noundef 2257, ptr noundef nonnull @__func__.FileWriteV) #25
  unreachable

37:                                               ; preds = %._crit_edge, %25, %14, %8
  %38 = icmp eq i32 %2, 1
  %39 = getelementptr inbounds nuw i8, ptr %1, i64 8
  br i1 %38, label %pg_pwritev.exit.us, label %pg_pwritev.exit

pg_pwritev.exit.us:                               ; preds = %37, %47
  %40 = load ptr, ptr @my_wait_event_info, align 8
  store volatile i32 %4, ptr %40, align 4
  %41 = load i32, ptr %11, align 8
  %42 = load ptr, ptr %1, align 8
  %43 = load i64, ptr %39, align 8
  %44 = tail call i64 @pwrite(i32 noundef %41, ptr noundef %42, i64 noundef %43, i64 noundef %3) #25
  %45 = load ptr, ptr @my_wait_event_info, align 8
  store volatile i32 0, ptr %45, align 4
  %46 = icmp sgt i64 %44, -1
  br i1 %46, label %.split47.us, label %47

47:                                               ; preds = %pg_pwritev.exit.us
  %48 = tail call ptr @__errno_location() #26
  %49 = load i32, ptr %48, align 4
  %50 = icmp eq i32 %49, 4
  br i1 %50, label %pg_pwritev.exit.us, label %.loopexit

pg_pwritev.exit:                                  ; preds = %37, %69
  %51 = load ptr, ptr @my_wait_event_info, align 8
  store volatile i32 %4, ptr %51, align 4
  %52 = load i32, ptr %11, align 8
  %53 = tail call i64 @pwritev(i32 noundef %52, ptr noundef %1, i32 noundef %2, i64 noundef %3) #25
  %54 = load ptr, ptr @my_wait_event_info, align 8
  store volatile i32 0, ptr %54, align 4
  %55 = icmp sgt i64 %53, -1
  br i1 %55, label %.split47.us, label %69

.split47.us:                                      ; preds = %pg_pwritev.exit, %pg_pwritev.exit.us
  %.us-phi = phi i64 [ %44, %pg_pwritev.exit.us ], [ %53, %pg_pwritev.exit ]
  %56 = tail call ptr @__errno_location() #26
  store i32 28, ptr %56, align 4
  %57 = getelementptr inbounds nuw i8, ptr %11, i64 4
  %58 = load i16, ptr %57, align 4
  %59 = and i16 %58, 4
  %.not41 = icmp eq i16 %59, 0
  br i1 %.not41, label %.loopexit, label %60

60:                                               ; preds = %.split47.us
  %61 = add i64 %.us-phi, %3
  %62 = getelementptr inbounds nuw i8, ptr %11, i64 32
  %63 = load i64, ptr %62, align 8
  %64 = icmp sgt i64 %61, %63
  br i1 %64, label %65, label %.loopexit

65:                                               ; preds = %60
  %66 = sub i64 %61, %63
  %67 = load i64, ptr @temporary_files_size, align 8
  %68 = add i64 %66, %67
  store i64 %68, ptr @temporary_files_size, align 8
  store i64 %61, ptr %62, align 8
  br label %.loopexit

69:                                               ; preds = %pg_pwritev.exit
  %70 = tail call ptr @__errno_location() #26
  %71 = load i32, ptr %70, align 4
  %72 = icmp eq i32 %71, 4
  br i1 %72, label %pg_pwritev.exit, label %.loopexit

.loopexit:                                        ; preds = %69, %47, %5, %.split47.us, %65, %60
  %.0 = phi i64 [ %.us-phi, %60 ], [ %.us-phi, %65 ], [ %.us-phi, %.split47.us ], [ -1, %5 ], [ %44, %47 ], [ %53, %69 ]
  ret i64 %.0
}